target datalayout = "e-m:e-p270:32:32-p271:32:32-p272:64:64-i64:64-i128:128-f80:128-n8:16:32:64-S128"
target triple = "x86_64-pc-linux-gnu"

%struct.png_row_info_struct = type { i32, i64, i8, i8, i8, i8 }

; Function Attrs: nounwind uwtable
define void @png_do_invert(ptr noundef %0, ptr noundef %1) #0 {
  %3 = alloca ptr, align 8
  %4 = alloca ptr, align 8
  %5 = alloca ptr, align 8
  %6 = alloca i64, align 8
  %7 = alloca i64, align 8
  %8 = alloca ptr, align 8
  %9 = alloca i64, align 8
  %10 = alloca i64, align 8
  %11 = alloca ptr, align 8
  %12 = alloca i64, align 8
  %13 = alloca i64, align 8
  store ptr %0, ptr %3, align 8
  store ptr %1, ptr %4, align 8
  %14 = load ptr, ptr %3, align 8
  %15 = getelementptr inbounds %struct.png_row_info_struct, ptr %14, i32 0, i32 2
  %16 = load i8, ptr %15, align 8
  %17 = zext i8 %16 to i32
  %18 = icmp eq i32 %17, 0
  br i1 %18, label %19, label %41

19:                                               ; preds = %2
  %20 = load ptr, ptr %4, align 8
  store ptr %20, ptr %5, align 8
  %21 = load ptr, ptr %3, align 8
  %22 = getelementptr inbounds %struct.png_row_info_struct, ptr %21, i32 0, i32 1
  %23 = load i64, ptr %22, align 8
  store i64 %23, ptr %7, align 8
  store i64 0, ptr %6, align 8
  br label %24

24:                                               ; preds = %37, %19
  %25 = load i64, ptr %6, align 8
  %26 = load i64, ptr %7, align 8
  %27 = icmp ult i64 %25, %26
  br i1 %27, label %28, label %40

28:                                               ; preds = %24
  %29 = load ptr, ptr %5, align 8
  %30 = load i8, ptr %29, align 1
  %31 = zext i8 %30 to i32
  %32 = xor i32 %31, -1
  %33 = trunc i32 %32 to i8
  %34 = load ptr, ptr %5, align 8
  store i8 %33, ptr %34, align 1
  %35 = load ptr, ptr %5, align 8
  %36 = getelementptr inbounds i8, ptr %35, i32 1
  store ptr %36, ptr %5, align 8
  br label %37

37:                                               ; preds = %28
  %38 = load i64, ptr %6, align 8
  %39 = add i64 %38, 1
  store i64 %39, ptr %6, align 8
  br label %24, !llvm.loop !4

40:                                               ; preds = %24
  br label %119

41:                                               ; preds = %2
  %42 = load ptr, ptr %3, align 8
  %43 = getelementptr inbounds %struct.png_row_info_struct, ptr %42, i32 0, i32 2
  %44 = load i8, ptr %43, align 8
  %45 = zext i8 %44 to i32
  %46 = icmp eq i32 %45, 4
  br i1 %46, label %47, label %75

47:                                               ; preds = %41
  %48 = load ptr, ptr %3, align 8
  %49 = getelementptr inbounds %struct.png_row_info_struct, ptr %48, i32 0, i32 3
  %50 = load i8, ptr %49, align 1
  %51 = zext i8 %50 to i32
  %52 = icmp eq i32 %51, 8
  br i1 %52, label %53, label %75

53:                                               ; preds = %47
  %54 = load ptr, ptr %4, align 8
  store ptr %54, ptr %8, align 8
  %55 = load ptr, ptr %3, align 8
  %56 = getelementptr inbounds %struct.png_row_info_struct, ptr %55, i32 0, i32 1
  %57 = load i64, ptr %56, align 8
  store i64 %57, ptr %10, align 8
  store i64 0, ptr %9, align 8
  br label %58

58:                                               ; preds = %71, %53
  %59 = load i64, ptr %9, align 8
  %60 = load i64, ptr %10, align 8
  %61 = icmp ult i64 %59, %60
  br i1 %61, label %62, label %74

62:                                               ; preds = %58
  %63 = load ptr, ptr %8, align 8
  %64 = load i8, ptr %63, align 1
  %65 = zext i8 %64 to i32
  %66 = xor i32 %65, -1
  %67 = trunc i32 %66 to i8
  %68 = load ptr, ptr %8, align 8
  store i8 %67, ptr %68, align 1
  %69 = load ptr, ptr %8, align 8
  %70 = getelementptr inbounds i8, ptr %69, i64 2
  store ptr %70, ptr %8, align 8
  br label %71

71:                                               ; preds = %62
  %72 = load i64, ptr %9, align 8
  %73 = add i64 %72, 2
  store i64 %73, ptr %9, align 8
  br label %58, !llvm.loop !6

74:                                               ; preds = %58
  br label %118

75:                                               ; preds = %47, %41
  %76 = load ptr, ptr %3, align 8
  %77 = getelementptr inbounds %struct.png_row_info_struct, ptr %76, i32 0, i32 2
  %78 = load i8, ptr %77, align 8
  %79 = zext i8 %78 to i32
  %80 = icmp eq i32 %79, 4
  br i1 %80, label %81, label %117

81:                                               ; preds = %75
  %82 = load ptr, ptr %3, align 8
  %83 = getelementptr inbounds %struct.png_row_info_struct, ptr %82, i32 0, i32 3
  %84 = load i8, ptr %83, align 1
  %85 = zext i8 %84 to i32
  %86 = icmp eq i32 %85, 16
  br i1 %86, label %87, label %117

87:                                               ; preds = %81
  %88 = load ptr, ptr %4, align 8
  store ptr %88, ptr %11, align 8
  %89 = load ptr, ptr %3, align 8
  %90 = getelementptr inbounds %struct.png_row_info_struct, ptr %89, i32 0, i32 1
  %91 = load i64, ptr %90, align 8
  store i64 %91, ptr %13, align 8
  store i64 0, ptr %12, align 8
  br label %92

92:                                               ; preds = %113, %87
  %93 = load i64, ptr %12, align 8
  %94 = load i64, ptr %13, align 8
  %95 = icmp ult i64 %93, %94
  br i1 %95, label %96, label %116

96:                                               ; preds = %92
  %97 = load ptr, ptr %11, align 8
  %98 = load i8, ptr %97, align 1
  %99 = zext i8 %98 to i32
  %100 = xor i32 %99, -1
  %101 = trunc i32 %100 to i8
  %102 = load ptr, ptr %11, align 8
  store i8 %101, ptr %102, align 1
  %103 = load ptr, ptr %11, align 8
  %104 = getelementptr inbounds i8, ptr %103, i64 1
  %105 = load i8, ptr %104, align 1
  %106 = zext i8 %105 to i32
  %107 = xor i32 %106, -1
  %108 = trunc i32 %107 to i8
  %109 = load ptr, ptr %11, align 8
  %110 = getelementptr inbounds i8, ptr %109, i64 1
  store i8 %108, ptr %110, align 1
  %111 = load ptr, ptr %11, align 8
  %112 = getelementptr inbounds i8, ptr %111, i64 4
  store ptr %112, ptr %11, align 8
  br label %113

113:                                              ; preds = %96
  %114 = load i64, ptr %12, align 8
  %115 = add i64 %114, 4
  store i64 %115, ptr %12, align 8
  br label %92, !llvm.loop !7

116:                                              ; preds = %92
  br label %117

117:                                              ; preds = %116, %81, %75
  br label %118

118:                                              ; preds = %117, %74
  br label %119

119:                                              ; preds = %118, %40
  ret void
}