; Function Attrs: nofree norecurse nosync nounwind memory(readwrite, inaccessiblemem: none) uwtable
define void @png_do_invert(ptr nocapture noundef readonly %0, ptr nocapture noundef %1) local_unnamed_addr #4 {
  %3 = getelementptr inbounds i8, ptr %0, i64 16
  %4 = load i8, ptr %3, align 8
  switch i8 %4, label %.loopexit [
    i8 0, label %5
    i8 4, label %12
  ]

5:                                                ; preds = %2
  %6 = getelementptr inbounds i8, ptr %0, i64 8
  %7 = load i64, ptr %6, align 8
  %.not47 = icmp eq i64 %7, 0
  br i1 %.not47, label %.loopexit, label %.lr.ph45

.lr.ph45:                                         ; preds = %5, %.lr.ph45
  %.044 = phi ptr [ %10, %.lr.ph45 ], [ %1, %5 ]
  %.03243 = phi i64 [ %11, %.lr.ph45 ], [ 0, %5 ]
  %8 = load i8, ptr %.044, align 1
  %9 = xor i8 %8, -1
  store i8 %9, ptr %.044, align 1
  %10 = getelementptr inbounds i8, ptr %.044, i64 1
  %11 = add nuw i64 %.03243, 1
  %exitcond.not = icmp eq i64 %11, %7
  br i1 %exitcond.not, label %.loopexit, label %.lr.ph45, !llvm.loop !7

12:                                               ; preds = %2
  %13 = getelementptr inbounds i8, ptr %0, i64 17
  %14 = load i8, ptr %13, align 1
  switch i8 %14, label %.loopexit [
    i8 8, label %15
    i8 16, label %23
  ]

15:                                               ; preds = %12
  %16 = getelementptr inbounds i8, ptr %0, i64 8
  %17 = load i64, ptr %16, align 8
  %.not46 = icmp eq i64 %17, 0
  br i1 %.not46, label %.loopexit, label %.lr.ph42

.lr.ph42:                                         ; preds = %15, %.lr.ph42
  %.03341 = phi i64 [ %21, %.lr.ph42 ], [ 0, %15 ]
  %.03440 = phi ptr [ %20, %.lr.ph42 ], [ %1, %15 ]
  %18 = load i8, ptr %.03440, align 1
  %19 = xor i8 %18, -1
  store i8 %19, ptr %.03440, align 1
  %20 = getelementptr inbounds i8, ptr %.03440, i64 2
  %21 = add nuw i64 %.03341, 2
  %22 = icmp ult i64 %21, %17
  br i1 %22, label %.lr.ph42, label %.loopexit, !llvm.loop !9

23:                                               ; preds = %12
  %24 = getelementptr inbounds i8, ptr %0, i64 8
  %25 = load i64, ptr %24, align 8
  %.not = icmp eq i64 %25, 0
  br i1 %.not, label %.loopexit, label %.lr.ph

.lr.ph:                                           ; preds = %23, %.lr.ph
  %.03039 = phi i64 [ %32, %.lr.ph ], [ 0, %23 ]
  %.03138 = phi ptr [ %31, %.lr.ph ], [ %1, %23 ]
  %26 = load i8, ptr %.03138, align 1
  %27 = xor i8 %26, -1
  store i8 %27, ptr %.03138, align 1
  %28 = getelementptr inbounds i8, ptr %.03138, i64 1
  %29 = load i8, ptr %28, align 1
  %30 = xor i8 %29, -1
  store i8 %30, ptr %28, align 1
  %31 = getelementptr inbounds i8, ptr %.03138, i64 4
  %32 = add nuw i64 %.03039, 4
  %33 = icmp ult i64 %32, %25
  br i1 %33, label %.lr.ph, label %.loopexit, !llvm.loop !10

.loopexit:                                        ; preds = %.lr.ph, %.lr.ph42, %.lr.ph45, %12, %23, %15, %5, %2
  ret void
}